GAS LISTING /var/folders/x6/17svhgds0x7889jbwj0rb4y80000gp/T//ccsgTFFA.s 			page 1


   1               		.file	"SendOnlySoftwareSerial.cpp"
   2               	__SP_H__ = 0x3e
   3               	__SP_L__ = 0x3d
   4               	__SREG__ = 0x3f
   5               	__tmp_reg__ = 0
   6               	__zero_reg__ = 1
   7               		.text
   8               	.Ltext0:
   9               		.cfi_sections	.debug_frame
  10               		.section	.text._ZN22SendOnlySoftwareSerial5writeEh,"ax",@progbits
  11               	.global	_ZN22SendOnlySoftwareSerial5writeEh
  12               		.type	_ZN22SendOnlySoftwareSerial5writeEh, @function
  13               	_ZN22SendOnlySoftwareSerial5writeEh:
  14               	.LFB104:
  15               		.file 1 "../TinyAudioBoot/SendOnlySoftwareSerial.cpp"
   1:../TinyAudioBoot/SendOnlySoftwareSerial.cpp **** /*
   2:../TinyAudioBoot/SendOnlySoftwareSerial.cpp **** 
   3:../TinyAudioBoot/SendOnlySoftwareSerial.cpp **** SendOnlySoftwareSerial - adapted from SendOnlySoftwareSerial by Nick Gammon 30th December 2016
   4:../TinyAudioBoot/SendOnlySoftwareSerial.cpp **** 
   5:../TinyAudioBoot/SendOnlySoftwareSerial.cpp **** SoftwareSerial.cpp (formerly NewSoftSerial.cpp) -
   6:../TinyAudioBoot/SendOnlySoftwareSerial.cpp **** Multi-instance software serial library for Arduino/Wiring
   7:../TinyAudioBoot/SendOnlySoftwareSerial.cpp **** -- Interrupt-driven receive and other improvements by ladyada
   8:../TinyAudioBoot/SendOnlySoftwareSerial.cpp ****    (http://ladyada.net)
   9:../TinyAudioBoot/SendOnlySoftwareSerial.cpp **** -- Tuning, circular buffer, derivation from class Print/Stream,
  10:../TinyAudioBoot/SendOnlySoftwareSerial.cpp ****    multi-instance support, porting to 8MHz processors,
  11:../TinyAudioBoot/SendOnlySoftwareSerial.cpp ****    various optimizations, PROGMEM delay tables, inverse logic and
  12:../TinyAudioBoot/SendOnlySoftwareSerial.cpp ****    direct port writing by Mikal Hart (http://www.arduiniana.org)
  13:../TinyAudioBoot/SendOnlySoftwareSerial.cpp **** -- Pin change interrupt macros by Paul Stoffregen (http://www.pjrc.com)
  14:../TinyAudioBoot/SendOnlySoftwareSerial.cpp **** -- 20MHz processor support by Garrett Mace (http://www.macetech.com)
  15:../TinyAudioBoot/SendOnlySoftwareSerial.cpp **** -- ATmega1280/2560 support by Brett Hagman (http://www.roguerobotics.com/)
  16:../TinyAudioBoot/SendOnlySoftwareSerial.cpp **** 
  17:../TinyAudioBoot/SendOnlySoftwareSerial.cpp **** This library is free software; you can redistribute it and/or
  18:../TinyAudioBoot/SendOnlySoftwareSerial.cpp **** modify it under the terms of the GNU Lesser General Public
  19:../TinyAudioBoot/SendOnlySoftwareSerial.cpp **** License as published by the Free Software Foundation; either
  20:../TinyAudioBoot/SendOnlySoftwareSerial.cpp **** version 2.1 of the License, or (at your option) any later version.
  21:../TinyAudioBoot/SendOnlySoftwareSerial.cpp **** 
  22:../TinyAudioBoot/SendOnlySoftwareSerial.cpp **** This library is distributed in the hope that it will be useful,
  23:../TinyAudioBoot/SendOnlySoftwareSerial.cpp **** but WITHOUT ANY WARRANTY; without even the implied warranty of
  24:../TinyAudioBoot/SendOnlySoftwareSerial.cpp **** MERCHANTABILITY or FITNESS FOR A PARTICULAR PURPOSE.  See the GNU
  25:../TinyAudioBoot/SendOnlySoftwareSerial.cpp **** Lesser General Public License for more details.
  26:../TinyAudioBoot/SendOnlySoftwareSerial.cpp **** 
  27:../TinyAudioBoot/SendOnlySoftwareSerial.cpp **** You should have received a copy of the GNU Lesser General Public
  28:../TinyAudioBoot/SendOnlySoftwareSerial.cpp **** License along with this library; if not, write to the Free Software
  29:../TinyAudioBoot/SendOnlySoftwareSerial.cpp **** Foundation, Inc., 51 Franklin St, Fifth Floor, Boston, MA  02110-1301  USA
  30:../TinyAudioBoot/SendOnlySoftwareSerial.cpp **** 
  31:../TinyAudioBoot/SendOnlySoftwareSerial.cpp **** The latest version of this library can always be found at
  32:../TinyAudioBoot/SendOnlySoftwareSerial.cpp **** http://arduiniana.org.
  33:../TinyAudioBoot/SendOnlySoftwareSerial.cpp **** */
  34:../TinyAudioBoot/SendOnlySoftwareSerial.cpp **** 
  35:../TinyAudioBoot/SendOnlySoftwareSerial.cpp **** // When set, _DEBUG co-opts pins 11 and 13 for debugging with an
  36:../TinyAudioBoot/SendOnlySoftwareSerial.cpp **** // oscilloscope or logic analyzer.  Beware: it also slightly modifies
  37:../TinyAudioBoot/SendOnlySoftwareSerial.cpp **** // the bit times, so don't rely on it too much at high baud rates
  38:../TinyAudioBoot/SendOnlySoftwareSerial.cpp **** #define _DEBUG 0
  39:../TinyAudioBoot/SendOnlySoftwareSerial.cpp **** #define _DEBUG_PIN1 11
  40:../TinyAudioBoot/SendOnlySoftwareSerial.cpp **** #define _DEBUG_PIN2 13
  41:../TinyAudioBoot/SendOnlySoftwareSerial.cpp **** //
  42:../TinyAudioBoot/SendOnlySoftwareSerial.cpp **** // Includes
GAS LISTING /var/folders/x6/17svhgds0x7889jbwj0rb4y80000gp/T//ccsgTFFA.s 			page 2


  43:../TinyAudioBoot/SendOnlySoftwareSerial.cpp **** //
  44:../TinyAudioBoot/SendOnlySoftwareSerial.cpp **** #include <avr/interrupt.h>
  45:../TinyAudioBoot/SendOnlySoftwareSerial.cpp **** #include <avr/pgmspace.h>
  46:../TinyAudioBoot/SendOnlySoftwareSerial.cpp **** #include <Arduino.h>
  47:../TinyAudioBoot/SendOnlySoftwareSerial.cpp **** #include <SendOnlySoftwareSerial.h>
  48:../TinyAudioBoot/SendOnlySoftwareSerial.cpp **** #include <util/delay_basic.h>
  49:../TinyAudioBoot/SendOnlySoftwareSerial.cpp **** 
  50:../TinyAudioBoot/SendOnlySoftwareSerial.cpp **** //
  51:../TinyAudioBoot/SendOnlySoftwareSerial.cpp **** // Debugging
  52:../TinyAudioBoot/SendOnlySoftwareSerial.cpp **** //
  53:../TinyAudioBoot/SendOnlySoftwareSerial.cpp **** // This function generates a brief pulse
  54:../TinyAudioBoot/SendOnlySoftwareSerial.cpp **** // for debugging or measuring on an oscilloscope.
  55:../TinyAudioBoot/SendOnlySoftwareSerial.cpp **** #if _DEBUG
  56:../TinyAudioBoot/SendOnlySoftwareSerial.cpp **** inline void DebugPulse(uint8_t pin, uint8_t count)
  57:../TinyAudioBoot/SendOnlySoftwareSerial.cpp **** {
  58:../TinyAudioBoot/SendOnlySoftwareSerial.cpp ****   volatile uint8_t *pport = portOutputRegister(digitalPinToPort(pin));
  59:../TinyAudioBoot/SendOnlySoftwareSerial.cpp **** 
  60:../TinyAudioBoot/SendOnlySoftwareSerial.cpp ****   uint8_t val = *pport;
  61:../TinyAudioBoot/SendOnlySoftwareSerial.cpp ****   while (count--)
  62:../TinyAudioBoot/SendOnlySoftwareSerial.cpp ****   {
  63:../TinyAudioBoot/SendOnlySoftwareSerial.cpp ****     *pport = val | digitalPinToBitMask(pin);
  64:../TinyAudioBoot/SendOnlySoftwareSerial.cpp ****     *pport = val;
  65:../TinyAudioBoot/SendOnlySoftwareSerial.cpp ****   }
  66:../TinyAudioBoot/SendOnlySoftwareSerial.cpp **** }
  67:../TinyAudioBoot/SendOnlySoftwareSerial.cpp **** #else
  68:../TinyAudioBoot/SendOnlySoftwareSerial.cpp **** inline void DebugPulse(uint8_t, uint8_t) {}
  69:../TinyAudioBoot/SendOnlySoftwareSerial.cpp **** #endif
  70:../TinyAudioBoot/SendOnlySoftwareSerial.cpp **** 
  71:../TinyAudioBoot/SendOnlySoftwareSerial.cpp **** //
  72:../TinyAudioBoot/SendOnlySoftwareSerial.cpp **** // Private methods
  73:../TinyAudioBoot/SendOnlySoftwareSerial.cpp **** //
  74:../TinyAudioBoot/SendOnlySoftwareSerial.cpp **** 
  75:../TinyAudioBoot/SendOnlySoftwareSerial.cpp **** /* static */
  76:../TinyAudioBoot/SendOnlySoftwareSerial.cpp **** inline void SendOnlySoftwareSerial::tunedDelay(uint16_t delay) {
  77:../TinyAudioBoot/SendOnlySoftwareSerial.cpp ****   _delay_loop_2(delay);
  78:../TinyAudioBoot/SendOnlySoftwareSerial.cpp **** }
  79:../TinyAudioBoot/SendOnlySoftwareSerial.cpp **** 
  80:../TinyAudioBoot/SendOnlySoftwareSerial.cpp **** //
  81:../TinyAudioBoot/SendOnlySoftwareSerial.cpp **** // Constructor
  82:../TinyAudioBoot/SendOnlySoftwareSerial.cpp **** //
  83:../TinyAudioBoot/SendOnlySoftwareSerial.cpp **** SendOnlySoftwareSerial::SendOnlySoftwareSerial(uint8_t transmitPin, bool inverse_logic /* = false *
  84:../TinyAudioBoot/SendOnlySoftwareSerial.cpp ****   _tx_delay(0),
  85:../TinyAudioBoot/SendOnlySoftwareSerial.cpp ****   _inverse_logic(inverse_logic)
  86:../TinyAudioBoot/SendOnlySoftwareSerial.cpp **** {
  87:../TinyAudioBoot/SendOnlySoftwareSerial.cpp ****   setTX(transmitPin);
  88:../TinyAudioBoot/SendOnlySoftwareSerial.cpp **** }
  89:../TinyAudioBoot/SendOnlySoftwareSerial.cpp **** 
  90:../TinyAudioBoot/SendOnlySoftwareSerial.cpp **** //
  91:../TinyAudioBoot/SendOnlySoftwareSerial.cpp **** // Destructor
  92:../TinyAudioBoot/SendOnlySoftwareSerial.cpp **** //
  93:../TinyAudioBoot/SendOnlySoftwareSerial.cpp **** SendOnlySoftwareSerial::~SendOnlySoftwareSerial()
  94:../TinyAudioBoot/SendOnlySoftwareSerial.cpp **** {
  95:../TinyAudioBoot/SendOnlySoftwareSerial.cpp ****   end();
  96:../TinyAudioBoot/SendOnlySoftwareSerial.cpp **** }
  97:../TinyAudioBoot/SendOnlySoftwareSerial.cpp **** 
  98:../TinyAudioBoot/SendOnlySoftwareSerial.cpp **** void SendOnlySoftwareSerial::setTX(uint8_t tx)
  99:../TinyAudioBoot/SendOnlySoftwareSerial.cpp **** {
GAS LISTING /var/folders/x6/17svhgds0x7889jbwj0rb4y80000gp/T//ccsgTFFA.s 			page 3


 100:../TinyAudioBoot/SendOnlySoftwareSerial.cpp ****   // First write, then set output. If we do this the other way around,
 101:../TinyAudioBoot/SendOnlySoftwareSerial.cpp ****   // the pin would be output low for a short while before switching to
 102:../TinyAudioBoot/SendOnlySoftwareSerial.cpp ****   // output high. Now, it is input with pullup for a short while, which
 103:../TinyAudioBoot/SendOnlySoftwareSerial.cpp ****   // is fine. With inverse logic, either order is fine.
 104:../TinyAudioBoot/SendOnlySoftwareSerial.cpp ****   digitalWrite(tx, _inverse_logic ? LOW : HIGH);
 105:../TinyAudioBoot/SendOnlySoftwareSerial.cpp ****   pinMode(tx, OUTPUT);
 106:../TinyAudioBoot/SendOnlySoftwareSerial.cpp ****   _transmitBitMask = digitalPinToBitMask(tx);
 107:../TinyAudioBoot/SendOnlySoftwareSerial.cpp ****   uint8_t port = digitalPinToPort(tx);
 108:../TinyAudioBoot/SendOnlySoftwareSerial.cpp ****   _transmitPortRegister = portOutputRegister(port);
 109:../TinyAudioBoot/SendOnlySoftwareSerial.cpp **** }
 110:../TinyAudioBoot/SendOnlySoftwareSerial.cpp **** 
 111:../TinyAudioBoot/SendOnlySoftwareSerial.cpp **** uint16_t SendOnlySoftwareSerial::subtract_cap(uint16_t num, uint16_t sub) {
 112:../TinyAudioBoot/SendOnlySoftwareSerial.cpp ****   if (num > sub)
 113:../TinyAudioBoot/SendOnlySoftwareSerial.cpp ****     return num - sub;
 114:../TinyAudioBoot/SendOnlySoftwareSerial.cpp ****   else
 115:../TinyAudioBoot/SendOnlySoftwareSerial.cpp ****     return 1;
 116:../TinyAudioBoot/SendOnlySoftwareSerial.cpp **** }
 117:../TinyAudioBoot/SendOnlySoftwareSerial.cpp **** 
 118:../TinyAudioBoot/SendOnlySoftwareSerial.cpp **** //
 119:../TinyAudioBoot/SendOnlySoftwareSerial.cpp **** // Public methods
 120:../TinyAudioBoot/SendOnlySoftwareSerial.cpp **** //
 121:../TinyAudioBoot/SendOnlySoftwareSerial.cpp **** 
 122:../TinyAudioBoot/SendOnlySoftwareSerial.cpp **** void SendOnlySoftwareSerial::begin(long speed)
 123:../TinyAudioBoot/SendOnlySoftwareSerial.cpp **** {
 124:../TinyAudioBoot/SendOnlySoftwareSerial.cpp ****   _tx_delay = 0;
 125:../TinyAudioBoot/SendOnlySoftwareSerial.cpp **** 
 126:../TinyAudioBoot/SendOnlySoftwareSerial.cpp ****   // Precalculate the various delays, in number of 4-cycle delays
 127:../TinyAudioBoot/SendOnlySoftwareSerial.cpp ****   uint16_t bit_delay = (F_CPU / speed) / 4;
 128:../TinyAudioBoot/SendOnlySoftwareSerial.cpp **** 
 129:../TinyAudioBoot/SendOnlySoftwareSerial.cpp ****   // 12 (gcc 4.8.2) or 13 (gcc 4.3.2) cycles from start bit to first bit,
 130:../TinyAudioBoot/SendOnlySoftwareSerial.cpp ****   // 15 (gcc 4.8.2) or 16 (gcc 4.3.2) cycles between bits,
 131:../TinyAudioBoot/SendOnlySoftwareSerial.cpp ****   // 12 (gcc 4.8.2) or 14 (gcc 4.3.2) cycles from last bit to stop bit
 132:../TinyAudioBoot/SendOnlySoftwareSerial.cpp ****   // These are all close enough to just use 15 cycles, since the inter-bit
 133:../TinyAudioBoot/SendOnlySoftwareSerial.cpp ****   // timings are the most critical (deviations stack 8 times)
 134:../TinyAudioBoot/SendOnlySoftwareSerial.cpp ****   _tx_delay = subtract_cap(bit_delay, 15 / 4);
 135:../TinyAudioBoot/SendOnlySoftwareSerial.cpp **** 
 136:../TinyAudioBoot/SendOnlySoftwareSerial.cpp **** #if _DEBUG
 137:../TinyAudioBoot/SendOnlySoftwareSerial.cpp ****   pinMode(_DEBUG_PIN1, OUTPUT);
 138:../TinyAudioBoot/SendOnlySoftwareSerial.cpp ****   pinMode(_DEBUG_PIN2, OUTPUT);
 139:../TinyAudioBoot/SendOnlySoftwareSerial.cpp **** #endif
 140:../TinyAudioBoot/SendOnlySoftwareSerial.cpp **** 
 141:../TinyAudioBoot/SendOnlySoftwareSerial.cpp **** }
 142:../TinyAudioBoot/SendOnlySoftwareSerial.cpp **** 
 143:../TinyAudioBoot/SendOnlySoftwareSerial.cpp **** void SendOnlySoftwareSerial::end()
 144:../TinyAudioBoot/SendOnlySoftwareSerial.cpp **** {
 145:../TinyAudioBoot/SendOnlySoftwareSerial.cpp **** }
 146:../TinyAudioBoot/SendOnlySoftwareSerial.cpp **** 
 147:../TinyAudioBoot/SendOnlySoftwareSerial.cpp **** size_t SendOnlySoftwareSerial::write(uint8_t b)
 148:../TinyAudioBoot/SendOnlySoftwareSerial.cpp **** {
  16               		.loc 1 148 0
  17               		.cfi_startproc
  18               	.LVL0:
  19 0000 1F93      		push r17
  20               	.LCFI0:
  21               		.cfi_def_cfa_offset 3
  22               		.cfi_offset 17, -2
  23 0002 CF93      		push r28
GAS LISTING /var/folders/x6/17svhgds0x7889jbwj0rb4y80000gp/T//ccsgTFFA.s 			page 4


  24               	.LCFI1:
  25               		.cfi_def_cfa_offset 4
  26               		.cfi_offset 28, -3
  27 0004 DF93      		push r29
  28               	.LCFI2:
  29               		.cfi_def_cfa_offset 5
  30               		.cfi_offset 29, -4
  31               	/* prologue: function */
  32               	/* frame size = 0 */
  33               	/* stack size = 3 */
  34               	.L__stack_usage = 3
  35 0006 DC01      		movw r26,r24
  36               	.LBB36:
 149:../TinyAudioBoot/SendOnlySoftwareSerial.cpp ****   if (_tx_delay == 0) {
  37               		.loc 1 149 0
  38 0008 1A96      		adiw r26,10
  39 000a 2D91      		ld r18,X+
  40 000c 3C91      		ld r19,X
  41 000e 1B97      		sbiw r26,10+1
  42 0010 2115      		cp r18,__zero_reg__
  43 0012 3105      		cpc r19,__zero_reg__
  44 0014 01F4      		brne .L2
  45               	.LVL1:
  46               	.LBB37:
  47               	.LBB38:
  48               		.file 2 "/Users/xcorex/Library/Arduino15/packages/ATTinyCore/hardware/avr/1.0.6/cores/tiny/Print.h
   1:/Users/xcorex/Library/Arduino15/packages/ATTinyCore/hardware/avr/1.0.6/cores/tiny/Print.h **** /*
   2:/Users/xcorex/Library/Arduino15/packages/ATTinyCore/hardware/avr/1.0.6/cores/tiny/Print.h ****   Print.h - Base class that provides print() and println()
   3:/Users/xcorex/Library/Arduino15/packages/ATTinyCore/hardware/avr/1.0.6/cores/tiny/Print.h ****   Copyright (c) 2008 David A. Mellis.  All right reserved.
   4:/Users/xcorex/Library/Arduino15/packages/ATTinyCore/hardware/avr/1.0.6/cores/tiny/Print.h **** 
   5:/Users/xcorex/Library/Arduino15/packages/ATTinyCore/hardware/avr/1.0.6/cores/tiny/Print.h ****   This library is free software; you can redistribute it and/or
   6:/Users/xcorex/Library/Arduino15/packages/ATTinyCore/hardware/avr/1.0.6/cores/tiny/Print.h ****   modify it under the terms of the GNU Lesser General Public
   7:/Users/xcorex/Library/Arduino15/packages/ATTinyCore/hardware/avr/1.0.6/cores/tiny/Print.h ****   License as published by the Free Software Foundation; either
   8:/Users/xcorex/Library/Arduino15/packages/ATTinyCore/hardware/avr/1.0.6/cores/tiny/Print.h ****   version 2.1 of the License, or (at your option) any later version.
   9:/Users/xcorex/Library/Arduino15/packages/ATTinyCore/hardware/avr/1.0.6/cores/tiny/Print.h **** 
  10:/Users/xcorex/Library/Arduino15/packages/ATTinyCore/hardware/avr/1.0.6/cores/tiny/Print.h ****   This library is distributed in the hope that it will be useful,
  11:/Users/xcorex/Library/Arduino15/packages/ATTinyCore/hardware/avr/1.0.6/cores/tiny/Print.h ****   but WITHOUT ANY WARRANTY; without even the implied warranty of
  12:/Users/xcorex/Library/Arduino15/packages/ATTinyCore/hardware/avr/1.0.6/cores/tiny/Print.h ****   MERCHANTABILITY or FITNESS FOR A PARTICULAR PURPOSE.  See the GNU
  13:/Users/xcorex/Library/Arduino15/packages/ATTinyCore/hardware/avr/1.0.6/cores/tiny/Print.h ****   Lesser General Public License for more details.
  14:/Users/xcorex/Library/Arduino15/packages/ATTinyCore/hardware/avr/1.0.6/cores/tiny/Print.h **** 
  15:/Users/xcorex/Library/Arduino15/packages/ATTinyCore/hardware/avr/1.0.6/cores/tiny/Print.h ****   You should have received a copy of the GNU Lesser General Public
  16:/Users/xcorex/Library/Arduino15/packages/ATTinyCore/hardware/avr/1.0.6/cores/tiny/Print.h ****   License along with this library; if not, write to the Free Software
  17:/Users/xcorex/Library/Arduino15/packages/ATTinyCore/hardware/avr/1.0.6/cores/tiny/Print.h ****   Foundation, Inc., 51 Franklin St, Fifth Floor, Boston, MA  02110-1301  USA
  18:/Users/xcorex/Library/Arduino15/packages/ATTinyCore/hardware/avr/1.0.6/cores/tiny/Print.h **** 
  19:/Users/xcorex/Library/Arduino15/packages/ATTinyCore/hardware/avr/1.0.6/cores/tiny/Print.h ****   Modified 20-11-2010 by B.Cook ...
  20:/Users/xcorex/Library/Arduino15/packages/ATTinyCore/hardware/avr/1.0.6/cores/tiny/Print.h **** 
  21:/Users/xcorex/Library/Arduino15/packages/ATTinyCore/hardware/avr/1.0.6/cores/tiny/Print.h ****     http://arduiniana.org/libraries/flash/
  22:/Users/xcorex/Library/Arduino15/packages/ATTinyCore/hardware/avr/1.0.6/cores/tiny/Print.h ****     Printable support thanks to Mikal Hart
  23:/Users/xcorex/Library/Arduino15/packages/ATTinyCore/hardware/avr/1.0.6/cores/tiny/Print.h **** */
  24:/Users/xcorex/Library/Arduino15/packages/ATTinyCore/hardware/avr/1.0.6/cores/tiny/Print.h **** 
  25:/Users/xcorex/Library/Arduino15/packages/ATTinyCore/hardware/avr/1.0.6/cores/tiny/Print.h **** #ifndef Print_h
  26:/Users/xcorex/Library/Arduino15/packages/ATTinyCore/hardware/avr/1.0.6/cores/tiny/Print.h **** #define Print_h
  27:/Users/xcorex/Library/Arduino15/packages/ATTinyCore/hardware/avr/1.0.6/cores/tiny/Print.h **** 
  28:/Users/xcorex/Library/Arduino15/packages/ATTinyCore/hardware/avr/1.0.6/cores/tiny/Print.h **** #include <inttypes.h>
  29:/Users/xcorex/Library/Arduino15/packages/ATTinyCore/hardware/avr/1.0.6/cores/tiny/Print.h **** #include <stdio.h> // for size_t
  30:/Users/xcorex/Library/Arduino15/packages/ATTinyCore/hardware/avr/1.0.6/cores/tiny/Print.h **** 
  31:/Users/xcorex/Library/Arduino15/packages/ATTinyCore/hardware/avr/1.0.6/cores/tiny/Print.h **** #include "WString.h"
GAS LISTING /var/folders/x6/17svhgds0x7889jbwj0rb4y80000gp/T//ccsgTFFA.s 			page 5


  32:/Users/xcorex/Library/Arduino15/packages/ATTinyCore/hardware/avr/1.0.6/cores/tiny/Print.h **** 
  33:/Users/xcorex/Library/Arduino15/packages/ATTinyCore/hardware/avr/1.0.6/cores/tiny/Print.h **** #define DEC 10
  34:/Users/xcorex/Library/Arduino15/packages/ATTinyCore/hardware/avr/1.0.6/cores/tiny/Print.h **** #define HEX 16
  35:/Users/xcorex/Library/Arduino15/packages/ATTinyCore/hardware/avr/1.0.6/cores/tiny/Print.h **** #define OCT 8
  36:/Users/xcorex/Library/Arduino15/packages/ATTinyCore/hardware/avr/1.0.6/cores/tiny/Print.h **** #ifdef BIN
  37:/Users/xcorex/Library/Arduino15/packages/ATTinyCore/hardware/avr/1.0.6/cores/tiny/Print.h **** #define ABIN BIN
  38:/Users/xcorex/Library/Arduino15/packages/ATTinyCore/hardware/avr/1.0.6/cores/tiny/Print.h **** //One of the ATtiny84 registers has a bit called BIN, so rename it to avoid compiler warnings. 
  39:/Users/xcorex/Library/Arduino15/packages/ATTinyCore/hardware/avr/1.0.6/cores/tiny/Print.h **** #undef BIN
  40:/Users/xcorex/Library/Arduino15/packages/ATTinyCore/hardware/avr/1.0.6/cores/tiny/Print.h **** #endif
  41:/Users/xcorex/Library/Arduino15/packages/ATTinyCore/hardware/avr/1.0.6/cores/tiny/Print.h **** #define BIN 2
  42:/Users/xcorex/Library/Arduino15/packages/ATTinyCore/hardware/avr/1.0.6/cores/tiny/Print.h **** 
  43:/Users/xcorex/Library/Arduino15/packages/ATTinyCore/hardware/avr/1.0.6/cores/tiny/Print.h **** #define ARDUINO_CORE_PRINTABLE_SUPPORT
  44:/Users/xcorex/Library/Arduino15/packages/ATTinyCore/hardware/avr/1.0.6/cores/tiny/Print.h **** 
  45:/Users/xcorex/Library/Arduino15/packages/ATTinyCore/hardware/avr/1.0.6/cores/tiny/Print.h **** class Print;
  46:/Users/xcorex/Library/Arduino15/packages/ATTinyCore/hardware/avr/1.0.6/cores/tiny/Print.h **** 
  47:/Users/xcorex/Library/Arduino15/packages/ATTinyCore/hardware/avr/1.0.6/cores/tiny/Print.h **** /* Printable...*/
  48:/Users/xcorex/Library/Arduino15/packages/ATTinyCore/hardware/avr/1.0.6/cores/tiny/Print.h **** 
  49:/Users/xcorex/Library/Arduino15/packages/ATTinyCore/hardware/avr/1.0.6/cores/tiny/Print.h **** class _Printable
  50:/Users/xcorex/Library/Arduino15/packages/ATTinyCore/hardware/avr/1.0.6/cores/tiny/Print.h **** {
  51:/Users/xcorex/Library/Arduino15/packages/ATTinyCore/hardware/avr/1.0.6/cores/tiny/Print.h **** public:
  52:/Users/xcorex/Library/Arduino15/packages/ATTinyCore/hardware/avr/1.0.6/cores/tiny/Print.h ****   virtual void print(Print &stream) const = 0;
  53:/Users/xcorex/Library/Arduino15/packages/ATTinyCore/hardware/avr/1.0.6/cores/tiny/Print.h **** };
  54:/Users/xcorex/Library/Arduino15/packages/ATTinyCore/hardware/avr/1.0.6/cores/tiny/Print.h **** 
  55:/Users/xcorex/Library/Arduino15/packages/ATTinyCore/hardware/avr/1.0.6/cores/tiny/Print.h **** /* ...Printable */
  56:/Users/xcorex/Library/Arduino15/packages/ATTinyCore/hardware/avr/1.0.6/cores/tiny/Print.h ****     
  57:/Users/xcorex/Library/Arduino15/packages/ATTinyCore/hardware/avr/1.0.6/cores/tiny/Print.h **** typedef struct
  58:/Users/xcorex/Library/Arduino15/packages/ATTinyCore/hardware/avr/1.0.6/cores/tiny/Print.h **** {
  59:/Users/xcorex/Library/Arduino15/packages/ATTinyCore/hardware/avr/1.0.6/cores/tiny/Print.h ****   char c;
  60:/Users/xcorex/Library/Arduino15/packages/ATTinyCore/hardware/avr/1.0.6/cores/tiny/Print.h **** }
  61:/Users/xcorex/Library/Arduino15/packages/ATTinyCore/hardware/avr/1.0.6/cores/tiny/Print.h **** fstr_t;
  62:/Users/xcorex/Library/Arduino15/packages/ATTinyCore/hardware/avr/1.0.6/cores/tiny/Print.h **** 
  63:/Users/xcorex/Library/Arduino15/packages/ATTinyCore/hardware/avr/1.0.6/cores/tiny/Print.h **** 
  64:/Users/xcorex/Library/Arduino15/packages/ATTinyCore/hardware/avr/1.0.6/cores/tiny/Print.h **** class Print
  65:/Users/xcorex/Library/Arduino15/packages/ATTinyCore/hardware/avr/1.0.6/cores/tiny/Print.h **** {
  66:/Users/xcorex/Library/Arduino15/packages/ATTinyCore/hardware/avr/1.0.6/cores/tiny/Print.h ****   private:
  67:/Users/xcorex/Library/Arduino15/packages/ATTinyCore/hardware/avr/1.0.6/cores/tiny/Print.h ****     int write_error;
  68:/Users/xcorex/Library/Arduino15/packages/ATTinyCore/hardware/avr/1.0.6/cores/tiny/Print.h ****     size_t printNumber(unsigned long, uint8_t);
  69:/Users/xcorex/Library/Arduino15/packages/ATTinyCore/hardware/avr/1.0.6/cores/tiny/Print.h ****     size_t printFloat(double, uint8_t);
  70:/Users/xcorex/Library/Arduino15/packages/ATTinyCore/hardware/avr/1.0.6/cores/tiny/Print.h ****   protected:
  71:/Users/xcorex/Library/Arduino15/packages/ATTinyCore/hardware/avr/1.0.6/cores/tiny/Print.h ****     void setWriteError(int err = 1) { write_error = err; }
  49               		.loc 2 71 0
  50 0016 81E0      		ldi r24,lo8(1)
  51 0018 90E0      		ldi r25,0
  52               	.LVL2:
  53 001a 1396      		adiw r26,2+1
  54 001c 9C93      		st X,r25
  55 001e 8E93      		st -X,r24
  56 0020 1297      		sbiw r26,2
  57               	.LBE38:
  58               	.LBE37:
 150:../TinyAudioBoot/SendOnlySoftwareSerial.cpp ****     setWriteError();
 151:../TinyAudioBoot/SendOnlySoftwareSerial.cpp ****     return 0;
  59               		.loc 1 151 0
  60 0022 00C0      		rjmp .L3
  61               	.LVL3:
  62               	.L2:
 152:../TinyAudioBoot/SendOnlySoftwareSerial.cpp ****   }
GAS LISTING /var/folders/x6/17svhgds0x7889jbwj0rb4y80000gp/T//ccsgTFFA.s 			page 6


 153:../TinyAudioBoot/SendOnlySoftwareSerial.cpp **** 
 154:../TinyAudioBoot/SendOnlySoftwareSerial.cpp ****   // By declaring these as local variables, the compiler will put them
 155:../TinyAudioBoot/SendOnlySoftwareSerial.cpp ****   // in registers _before_ disabling interrupts and entering the
 156:../TinyAudioBoot/SendOnlySoftwareSerial.cpp ****   // critical timing sections below, which makes it a lot easier to
 157:../TinyAudioBoot/SendOnlySoftwareSerial.cpp ****   // verify the cycle timings
 158:../TinyAudioBoot/SendOnlySoftwareSerial.cpp ****   volatile uint8_t *reg = _transmitPortRegister;
  63               		.loc 1 158 0
  64 0024 1596      		adiw r26,5
  65 0026 ED91      		ld r30,X+
  66 0028 FC91      		ld r31,X
  67 002a 1697      		sbiw r26,5+1
  68               	.LVL4:
 159:../TinyAudioBoot/SendOnlySoftwareSerial.cpp ****   uint8_t reg_mask = _transmitBitMask;
  69               		.loc 1 159 0
  70 002c 1496      		adiw r26,4
  71 002e 9C91      		ld r25,X
  72 0030 1497      		sbiw r26,4
  73               	.LVL5:
 160:../TinyAudioBoot/SendOnlySoftwareSerial.cpp ****   uint8_t inv_mask = ~_transmitBitMask;
  74               		.loc 1 160 0
  75 0032 892F      		mov r24,r25
  76               	.LVL6:
  77 0034 8095      		com r24
  78               	.LVL7:
 161:../TinyAudioBoot/SendOnlySoftwareSerial.cpp ****   uint8_t oldSREG = SREG;
  79               		.loc 1 161 0
  80 0036 1FB7      		in r17,__SREG__
  81               	.LVL8:
 162:../TinyAudioBoot/SendOnlySoftwareSerial.cpp ****   bool inv = _inverse_logic;
  82               		.loc 1 162 0
  83 0038 1C96      		adiw r26,12
  84 003a 4C91      		ld r20,X
  85 003c 1C97      		sbiw r26,12
  86               	.LVL9:
 163:../TinyAudioBoot/SendOnlySoftwareSerial.cpp ****   uint16_t delay = _tx_delay;
 164:../TinyAudioBoot/SendOnlySoftwareSerial.cpp **** 
 165:../TinyAudioBoot/SendOnlySoftwareSerial.cpp ****   if (inv)
  87               		.loc 1 165 0
  88 003e 41FB      		bst r20,1
  89 0040 7727      		clr r23
  90 0042 70F9      		bld r23,0
  91               	.LVL10:
  92 0044 41FD      		sbrc r20,1
 166:../TinyAudioBoot/SendOnlySoftwareSerial.cpp ****     b = ~b;
  93               		.loc 1 166 0
  94 0046 6095      		com r22
  95               	.LVL11:
  96               	.L4:
 167:../TinyAudioBoot/SendOnlySoftwareSerial.cpp **** 
 168:../TinyAudioBoot/SendOnlySoftwareSerial.cpp ****   cli();  // turn off interrupts for a clean txmit
  97               		.loc 1 168 0
  98               	/* #APP */
  99               	 ;  168 "../TinyAudioBoot/SendOnlySoftwareSerial.cpp" 1
 100 0048 F894      		cli
 101               	 ;  0 "" 2
 169:../TinyAudioBoot/SendOnlySoftwareSerial.cpp **** 
 170:../TinyAudioBoot/SendOnlySoftwareSerial.cpp ****   // Write the start bit
GAS LISTING /var/folders/x6/17svhgds0x7889jbwj0rb4y80000gp/T//ccsgTFFA.s 			page 7


 171:../TinyAudioBoot/SendOnlySoftwareSerial.cpp ****   if (inv)
 172:../TinyAudioBoot/SendOnlySoftwareSerial.cpp ****     *reg |= reg_mask;
 102               		.loc 1 172 0
 103               	/* #NOAPP */
 104 004a 4081      		ld r20,Z
 171:../TinyAudioBoot/SendOnlySoftwareSerial.cpp ****     *reg |= reg_mask;
 105               		.loc 1 171 0
 106 004c 7723      		tst r23
 107 004e 01F0      		breq .L5
 108               		.loc 1 172 0
 109 0050 492B      		or r20,r25
 110 0052 00C0      		rjmp .L16
 111               	.L5:
 173:../TinyAudioBoot/SendOnlySoftwareSerial.cpp ****   else
 174:../TinyAudioBoot/SendOnlySoftwareSerial.cpp ****     *reg &= inv_mask;
 112               		.loc 1 174 0
 113 0054 4823      		and r20,r24
 114               	.L16:
 115 0056 4083      		st Z,r20
 116               	.LVL12:
 117               	.LBB39:
 118               	.LBB40:
 119               	.LBB41:
 120               		.file 3 "/Applications/Arduino.app/Contents/Java/hardware/tools/avr/avr/include/util/delay_basic.h
   1:/Applications/Arduino.app/Contents/Java/hardware/tools/avr/avr/include/util/delay_basic.h **** /* Copyright (c) 2002, Marek Michalkiewicz
   2:/Applications/Arduino.app/Contents/Java/hardware/tools/avr/avr/include/util/delay_basic.h ****    Copyright (c) 2007 Joerg Wunsch
   3:/Applications/Arduino.app/Contents/Java/hardware/tools/avr/avr/include/util/delay_basic.h ****    All rights reserved.
   4:/Applications/Arduino.app/Contents/Java/hardware/tools/avr/avr/include/util/delay_basic.h **** 
   5:/Applications/Arduino.app/Contents/Java/hardware/tools/avr/avr/include/util/delay_basic.h ****    Redistribution and use in source and binary forms, with or without
   6:/Applications/Arduino.app/Contents/Java/hardware/tools/avr/avr/include/util/delay_basic.h ****    modification, are permitted provided that the following conditions are met:
   7:/Applications/Arduino.app/Contents/Java/hardware/tools/avr/avr/include/util/delay_basic.h **** 
   8:/Applications/Arduino.app/Contents/Java/hardware/tools/avr/avr/include/util/delay_basic.h ****    * Redistributions of source code must retain the above copyright
   9:/Applications/Arduino.app/Contents/Java/hardware/tools/avr/avr/include/util/delay_basic.h ****      notice, this list of conditions and the following disclaimer.
  10:/Applications/Arduino.app/Contents/Java/hardware/tools/avr/avr/include/util/delay_basic.h **** 
  11:/Applications/Arduino.app/Contents/Java/hardware/tools/avr/avr/include/util/delay_basic.h ****    * Redistributions in binary form must reproduce the above copyright
  12:/Applications/Arduino.app/Contents/Java/hardware/tools/avr/avr/include/util/delay_basic.h ****      notice, this list of conditions and the following disclaimer in
  13:/Applications/Arduino.app/Contents/Java/hardware/tools/avr/avr/include/util/delay_basic.h ****      the documentation and/or other materials provided with the
  14:/Applications/Arduino.app/Contents/Java/hardware/tools/avr/avr/include/util/delay_basic.h ****      distribution.
  15:/Applications/Arduino.app/Contents/Java/hardware/tools/avr/avr/include/util/delay_basic.h **** 
  16:/Applications/Arduino.app/Contents/Java/hardware/tools/avr/avr/include/util/delay_basic.h ****    * Neither the name of the copyright holders nor the names of
  17:/Applications/Arduino.app/Contents/Java/hardware/tools/avr/avr/include/util/delay_basic.h ****      contributors may be used to endorse or promote products derived
  18:/Applications/Arduino.app/Contents/Java/hardware/tools/avr/avr/include/util/delay_basic.h ****      from this software without specific prior written permission.
  19:/Applications/Arduino.app/Contents/Java/hardware/tools/avr/avr/include/util/delay_basic.h **** 
  20:/Applications/Arduino.app/Contents/Java/hardware/tools/avr/avr/include/util/delay_basic.h ****   THIS SOFTWARE IS PROVIDED BY THE COPYRIGHT HOLDERS AND CONTRIBUTORS "AS IS"
  21:/Applications/Arduino.app/Contents/Java/hardware/tools/avr/avr/include/util/delay_basic.h ****   AND ANY EXPRESS OR IMPLIED WARRANTIES, INCLUDING, BUT NOT LIMITED TO, THE
  22:/Applications/Arduino.app/Contents/Java/hardware/tools/avr/avr/include/util/delay_basic.h ****   IMPLIED WARRANTIES OF MERCHANTABILITY AND FITNESS FOR A PARTICULAR PURPOSE
  23:/Applications/Arduino.app/Contents/Java/hardware/tools/avr/avr/include/util/delay_basic.h ****   ARE DISCLAIMED. IN NO EVENT SHALL THE COPYRIGHT OWNER OR CONTRIBUTORS BE
  24:/Applications/Arduino.app/Contents/Java/hardware/tools/avr/avr/include/util/delay_basic.h ****   LIABLE FOR ANY DIRECT, INDIRECT, INCIDENTAL, SPECIAL, EXEMPLARY, OR
  25:/Applications/Arduino.app/Contents/Java/hardware/tools/avr/avr/include/util/delay_basic.h ****   CONSEQUENTIAL DAMAGES (INCLUDING, BUT NOT LIMITED TO, PROCUREMENT OF
  26:/Applications/Arduino.app/Contents/Java/hardware/tools/avr/avr/include/util/delay_basic.h ****   SUBSTITUTE GOODS OR SERVICES; LOSS OF USE, DATA, OR PROFITS; OR BUSINESS
  27:/Applications/Arduino.app/Contents/Java/hardware/tools/avr/avr/include/util/delay_basic.h ****   INTERRUPTION) HOWEVER CAUSED AND ON ANY THEORY OF LIABILITY, WHETHER IN
  28:/Applications/Arduino.app/Contents/Java/hardware/tools/avr/avr/include/util/delay_basic.h ****   CONTRACT, STRICT LIABILITY, OR TORT (INCLUDING NEGLIGENCE OR OTHERWISE)
  29:/Applications/Arduino.app/Contents/Java/hardware/tools/avr/avr/include/util/delay_basic.h ****   ARISING IN ANY WAY OUT OF THE USE OF THIS SOFTWARE, EVEN IF ADVISED OF THE
  30:/Applications/Arduino.app/Contents/Java/hardware/tools/avr/avr/include/util/delay_basic.h ****   POSSIBILITY OF SUCH DAMAGE. */
  31:/Applications/Arduino.app/Contents/Java/hardware/tools/avr/avr/include/util/delay_basic.h **** 
  32:/Applications/Arduino.app/Contents/Java/hardware/tools/avr/avr/include/util/delay_basic.h **** /* $Id$ */
  33:/Applications/Arduino.app/Contents/Java/hardware/tools/avr/avr/include/util/delay_basic.h **** 
GAS LISTING /var/folders/x6/17svhgds0x7889jbwj0rb4y80000gp/T//ccsgTFFA.s 			page 8


  34:/Applications/Arduino.app/Contents/Java/hardware/tools/avr/avr/include/util/delay_basic.h **** #ifndef _UTIL_DELAY_BASIC_H_
  35:/Applications/Arduino.app/Contents/Java/hardware/tools/avr/avr/include/util/delay_basic.h **** #define _UTIL_DELAY_BASIC_H_ 1
  36:/Applications/Arduino.app/Contents/Java/hardware/tools/avr/avr/include/util/delay_basic.h **** 
  37:/Applications/Arduino.app/Contents/Java/hardware/tools/avr/avr/include/util/delay_basic.h **** #include <inttypes.h>
  38:/Applications/Arduino.app/Contents/Java/hardware/tools/avr/avr/include/util/delay_basic.h **** 
  39:/Applications/Arduino.app/Contents/Java/hardware/tools/avr/avr/include/util/delay_basic.h **** #if !defined(__DOXYGEN__)
  40:/Applications/Arduino.app/Contents/Java/hardware/tools/avr/avr/include/util/delay_basic.h **** static __inline__ void _delay_loop_1(uint8_t __count) __attribute__((__always_inline__));
  41:/Applications/Arduino.app/Contents/Java/hardware/tools/avr/avr/include/util/delay_basic.h **** static __inline__ void _delay_loop_2(uint16_t __count) __attribute__((__always_inline__));
  42:/Applications/Arduino.app/Contents/Java/hardware/tools/avr/avr/include/util/delay_basic.h **** #endif
  43:/Applications/Arduino.app/Contents/Java/hardware/tools/avr/avr/include/util/delay_basic.h **** 
  44:/Applications/Arduino.app/Contents/Java/hardware/tools/avr/avr/include/util/delay_basic.h **** /** \file */
  45:/Applications/Arduino.app/Contents/Java/hardware/tools/avr/avr/include/util/delay_basic.h **** /** \defgroup util_delay_basic <util/delay_basic.h>: Basic busy-wait delay loops
  46:/Applications/Arduino.app/Contents/Java/hardware/tools/avr/avr/include/util/delay_basic.h ****     \code
  47:/Applications/Arduino.app/Contents/Java/hardware/tools/avr/avr/include/util/delay_basic.h ****     #include <util/delay_basic.h>
  48:/Applications/Arduino.app/Contents/Java/hardware/tools/avr/avr/include/util/delay_basic.h ****     \endcode
  49:/Applications/Arduino.app/Contents/Java/hardware/tools/avr/avr/include/util/delay_basic.h **** 
  50:/Applications/Arduino.app/Contents/Java/hardware/tools/avr/avr/include/util/delay_basic.h ****     The functions in this header file implement simple delay loops
  51:/Applications/Arduino.app/Contents/Java/hardware/tools/avr/avr/include/util/delay_basic.h ****     that perform a busy-waiting.  They are typically used to
  52:/Applications/Arduino.app/Contents/Java/hardware/tools/avr/avr/include/util/delay_basic.h ****     facilitate short delays in the program execution.  They are
  53:/Applications/Arduino.app/Contents/Java/hardware/tools/avr/avr/include/util/delay_basic.h ****     implemented as count-down loops with a well-known CPU cycle
  54:/Applications/Arduino.app/Contents/Java/hardware/tools/avr/avr/include/util/delay_basic.h ****     count per loop iteration.  As such, no other processing can
  55:/Applications/Arduino.app/Contents/Java/hardware/tools/avr/avr/include/util/delay_basic.h ****     occur simultaneously.  It should be kept in mind that the
  56:/Applications/Arduino.app/Contents/Java/hardware/tools/avr/avr/include/util/delay_basic.h ****     functions described here do not disable interrupts.
  57:/Applications/Arduino.app/Contents/Java/hardware/tools/avr/avr/include/util/delay_basic.h **** 
  58:/Applications/Arduino.app/Contents/Java/hardware/tools/avr/avr/include/util/delay_basic.h ****     In general, for long delays, the use of hardware timers is
  59:/Applications/Arduino.app/Contents/Java/hardware/tools/avr/avr/include/util/delay_basic.h ****     much preferrable, as they free the CPU, and allow for
  60:/Applications/Arduino.app/Contents/Java/hardware/tools/avr/avr/include/util/delay_basic.h ****     concurrent processing of other events while the timer is
  61:/Applications/Arduino.app/Contents/Java/hardware/tools/avr/avr/include/util/delay_basic.h ****     running.  However, in particular for very short delays, the
  62:/Applications/Arduino.app/Contents/Java/hardware/tools/avr/avr/include/util/delay_basic.h ****     overhead of setting up a hardware timer is too much compared
  63:/Applications/Arduino.app/Contents/Java/hardware/tools/avr/avr/include/util/delay_basic.h ****     to the overall delay time.
  64:/Applications/Arduino.app/Contents/Java/hardware/tools/avr/avr/include/util/delay_basic.h **** 
  65:/Applications/Arduino.app/Contents/Java/hardware/tools/avr/avr/include/util/delay_basic.h ****     Two inline functions are provided for the actual delay algorithms.
  66:/Applications/Arduino.app/Contents/Java/hardware/tools/avr/avr/include/util/delay_basic.h **** 
  67:/Applications/Arduino.app/Contents/Java/hardware/tools/avr/avr/include/util/delay_basic.h **** */
  68:/Applications/Arduino.app/Contents/Java/hardware/tools/avr/avr/include/util/delay_basic.h **** 
  69:/Applications/Arduino.app/Contents/Java/hardware/tools/avr/avr/include/util/delay_basic.h **** /** \ingroup util_delay_basic
  70:/Applications/Arduino.app/Contents/Java/hardware/tools/avr/avr/include/util/delay_basic.h **** 
  71:/Applications/Arduino.app/Contents/Java/hardware/tools/avr/avr/include/util/delay_basic.h ****     Delay loop using an 8-bit counter \c __count, so up to 256
  72:/Applications/Arduino.app/Contents/Java/hardware/tools/avr/avr/include/util/delay_basic.h ****     iterations are possible.  (The value 256 would have to be passed
  73:/Applications/Arduino.app/Contents/Java/hardware/tools/avr/avr/include/util/delay_basic.h ****     as 0.)  The loop executes three CPU cycles per iteration, not
  74:/Applications/Arduino.app/Contents/Java/hardware/tools/avr/avr/include/util/delay_basic.h ****     including the overhead the compiler needs to setup the counter
  75:/Applications/Arduino.app/Contents/Java/hardware/tools/avr/avr/include/util/delay_basic.h ****     register.
  76:/Applications/Arduino.app/Contents/Java/hardware/tools/avr/avr/include/util/delay_basic.h **** 
  77:/Applications/Arduino.app/Contents/Java/hardware/tools/avr/avr/include/util/delay_basic.h ****     Thus, at a CPU speed of 1 MHz, delays of up to 768 microseconds
  78:/Applications/Arduino.app/Contents/Java/hardware/tools/avr/avr/include/util/delay_basic.h ****     can be achieved.
  79:/Applications/Arduino.app/Contents/Java/hardware/tools/avr/avr/include/util/delay_basic.h **** */
  80:/Applications/Arduino.app/Contents/Java/hardware/tools/avr/avr/include/util/delay_basic.h **** void
  81:/Applications/Arduino.app/Contents/Java/hardware/tools/avr/avr/include/util/delay_basic.h **** _delay_loop_1(uint8_t __count)
  82:/Applications/Arduino.app/Contents/Java/hardware/tools/avr/avr/include/util/delay_basic.h **** {
  83:/Applications/Arduino.app/Contents/Java/hardware/tools/avr/avr/include/util/delay_basic.h **** 	__asm__ volatile (
  84:/Applications/Arduino.app/Contents/Java/hardware/tools/avr/avr/include/util/delay_basic.h **** 		"1: dec %0" "\n\t"
  85:/Applications/Arduino.app/Contents/Java/hardware/tools/avr/avr/include/util/delay_basic.h **** 		"brne 1b"
  86:/Applications/Arduino.app/Contents/Java/hardware/tools/avr/avr/include/util/delay_basic.h **** 		: "=r" (__count)
  87:/Applications/Arduino.app/Contents/Java/hardware/tools/avr/avr/include/util/delay_basic.h **** 		: "0" (__count)
  88:/Applications/Arduino.app/Contents/Java/hardware/tools/avr/avr/include/util/delay_basic.h **** 	);
  89:/Applications/Arduino.app/Contents/Java/hardware/tools/avr/avr/include/util/delay_basic.h **** }
  90:/Applications/Arduino.app/Contents/Java/hardware/tools/avr/avr/include/util/delay_basic.h **** 
GAS LISTING /var/folders/x6/17svhgds0x7889jbwj0rb4y80000gp/T//ccsgTFFA.s 			page 9


  91:/Applications/Arduino.app/Contents/Java/hardware/tools/avr/avr/include/util/delay_basic.h **** /** \ingroup util_delay_basic
  92:/Applications/Arduino.app/Contents/Java/hardware/tools/avr/avr/include/util/delay_basic.h **** 
  93:/Applications/Arduino.app/Contents/Java/hardware/tools/avr/avr/include/util/delay_basic.h ****     Delay loop using a 16-bit counter \c __count, so up to 65536
  94:/Applications/Arduino.app/Contents/Java/hardware/tools/avr/avr/include/util/delay_basic.h ****     iterations are possible.  (The value 65536 would have to be
  95:/Applications/Arduino.app/Contents/Java/hardware/tools/avr/avr/include/util/delay_basic.h ****     passed as 0.)  The loop executes four CPU cycles per iteration,
  96:/Applications/Arduino.app/Contents/Java/hardware/tools/avr/avr/include/util/delay_basic.h ****     not including the overhead the compiler requires to setup the
  97:/Applications/Arduino.app/Contents/Java/hardware/tools/avr/avr/include/util/delay_basic.h ****     counter register pair.
  98:/Applications/Arduino.app/Contents/Java/hardware/tools/avr/avr/include/util/delay_basic.h **** 
  99:/Applications/Arduino.app/Contents/Java/hardware/tools/avr/avr/include/util/delay_basic.h ****     Thus, at a CPU speed of 1 MHz, delays of up to about 262.1
 100:/Applications/Arduino.app/Contents/Java/hardware/tools/avr/avr/include/util/delay_basic.h ****     milliseconds can be achieved.
 101:/Applications/Arduino.app/Contents/Java/hardware/tools/avr/avr/include/util/delay_basic.h ****  */
 102:/Applications/Arduino.app/Contents/Java/hardware/tools/avr/avr/include/util/delay_basic.h **** void
 103:/Applications/Arduino.app/Contents/Java/hardware/tools/avr/avr/include/util/delay_basic.h **** _delay_loop_2(uint16_t __count)
 104:/Applications/Arduino.app/Contents/Java/hardware/tools/avr/avr/include/util/delay_basic.h **** {
 105:/Applications/Arduino.app/Contents/Java/hardware/tools/avr/avr/include/util/delay_basic.h **** 	__asm__ volatile (
 106:/Applications/Arduino.app/Contents/Java/hardware/tools/avr/avr/include/util/delay_basic.h **** 		"1: sbiw %0,1" "\n\t"
 107:/Applications/Arduino.app/Contents/Java/hardware/tools/avr/avr/include/util/delay_basic.h **** 		"brne 1b"
 108:/Applications/Arduino.app/Contents/Java/hardware/tools/avr/avr/include/util/delay_basic.h **** 		: "=w" (__count)
 109:/Applications/Arduino.app/Contents/Java/hardware/tools/avr/avr/include/util/delay_basic.h **** 		: "0" (__count)
 110:/Applications/Arduino.app/Contents/Java/hardware/tools/avr/avr/include/util/delay_basic.h **** 	);
 121               		.loc 3 110 0
 122 0058 E901      		movw r28,r18
 123               	/* #APP */
 124               	 ;  110 "/Applications/Arduino.app/Contents/Java/hardware/tools/avr/avr/include/util/delay_basic.h"
 125 005a 2197      		1: sbiw r28,1
 126 005c 01F4      		brne 1b
 127               	 ;  0 "" 2
 128               	.LVL13:
 129               	/* #NOAPP */
 130 005e 48E0      		ldi r20,lo8(8)
 131               	.LVL14:
 132               	.L9:
 133               	.LBE41:
 134               	.LBE40:
 135               	.LBE39:
 136               	.LBB42:
 175:../TinyAudioBoot/SendOnlySoftwareSerial.cpp **** 
 176:../TinyAudioBoot/SendOnlySoftwareSerial.cpp ****   tunedDelay(delay);
 177:../TinyAudioBoot/SendOnlySoftwareSerial.cpp **** 
 178:../TinyAudioBoot/SendOnlySoftwareSerial.cpp ****   // Write each of the 8 bits
 179:../TinyAudioBoot/SendOnlySoftwareSerial.cpp ****   for (uint8_t i = 8; i > 0; --i)
 180:../TinyAudioBoot/SendOnlySoftwareSerial.cpp ****   {
 181:../TinyAudioBoot/SendOnlySoftwareSerial.cpp ****     if (b & 1) // choose bit
 182:../TinyAudioBoot/SendOnlySoftwareSerial.cpp ****       *reg |= reg_mask; // send 1
 137               		.loc 1 182 0
 138 0060 5081      		ld r21,Z
 181:../TinyAudioBoot/SendOnlySoftwareSerial.cpp ****       *reg |= reg_mask; // send 1
 139               		.loc 1 181 0
 140 0062 60FF      		sbrs r22,0
 141 0064 00C0      		rjmp .L7
 142               		.loc 1 182 0
 143 0066 592B      		or r21,r25
 144 0068 00C0      		rjmp .L17
 145               	.L7:
 183:../TinyAudioBoot/SendOnlySoftwareSerial.cpp ****     else
 184:../TinyAudioBoot/SendOnlySoftwareSerial.cpp ****       *reg &= inv_mask; // send 0
 146               		.loc 1 184 0
GAS LISTING /var/folders/x6/17svhgds0x7889jbwj0rb4y80000gp/T//ccsgTFFA.s 			page 10


 147 006a 5823      		and r21,r24
 148               	.L17:
 149 006c 5083      		st Z,r21
 150               	.LVL15:
 151               	.LBB43:
 152               	.LBB44:
 153               	.LBB45:
 154               		.loc 3 110 0
 155 006e E901      		movw r28,r18
 156               	/* #APP */
 157               	 ;  110 "/Applications/Arduino.app/Contents/Java/hardware/tools/avr/avr/include/util/delay_basic.h"
 158 0070 2197      		1: sbiw r28,1
 159 0072 01F4      		brne 1b
 160               	 ;  0 "" 2
 161               	.LVL16:
 162               	/* #NOAPP */
 163               	.LBE45:
 164               	.LBE44:
 165               	.LBE43:
 185:../TinyAudioBoot/SendOnlySoftwareSerial.cpp **** 
 186:../TinyAudioBoot/SendOnlySoftwareSerial.cpp ****     tunedDelay(delay);
 187:../TinyAudioBoot/SendOnlySoftwareSerial.cpp ****     b >>= 1;
 166               		.loc 1 187 0
 167 0074 6695      		lsr r22
 168               	.LVL17:
 169 0076 4150      		subi r20,lo8(-(-1))
 170               	.LVL18:
 179:../TinyAudioBoot/SendOnlySoftwareSerial.cpp ****   {
 171               		.loc 1 179 0
 172 0078 01F4      		brne .L9
 173               	.LBE42:
 188:../TinyAudioBoot/SendOnlySoftwareSerial.cpp ****   }
 189:../TinyAudioBoot/SendOnlySoftwareSerial.cpp **** 
 190:../TinyAudioBoot/SendOnlySoftwareSerial.cpp ****   // restore pin to natural state
 191:../TinyAudioBoot/SendOnlySoftwareSerial.cpp ****   if (inv)
 174               		.loc 1 191 0
 175 007a 7723      		tst r23
 176 007c 01F0      		breq .L10
 192:../TinyAudioBoot/SendOnlySoftwareSerial.cpp ****     *reg &= inv_mask;
 177               		.loc 1 192 0
 178 007e 9081      		ld r25,Z
 179               	.LVL19:
 180 0080 8923      		and r24,r25
 181               	.LVL20:
 182 0082 8083      		st Z,r24
 183 0084 00C0      		rjmp .L11
 184               	.LVL21:
 185               	.L10:
 193:../TinyAudioBoot/SendOnlySoftwareSerial.cpp ****   else
 194:../TinyAudioBoot/SendOnlySoftwareSerial.cpp ****     *reg |= reg_mask;
 186               		.loc 1 194 0
 187 0086 8081      		ld r24,Z
 188               	.LVL22:
 189 0088 982B      		or r25,r24
 190               	.LVL23:
 191 008a 9083      		st Z,r25
 192               	.L11:
GAS LISTING /var/folders/x6/17svhgds0x7889jbwj0rb4y80000gp/T//ccsgTFFA.s 			page 11


 195:../TinyAudioBoot/SendOnlySoftwareSerial.cpp **** 
 196:../TinyAudioBoot/SendOnlySoftwareSerial.cpp ****   SREG = oldSREG; // turn interrupts back on
 193               		.loc 1 196 0
 194 008c 1FBF      		out __SREG__,r17
 195               	.LVL24:
 196               	.LBB46:
 197               	.LBB47:
 198               	.LBB48:
 199               		.loc 3 110 0
 200 008e 1A96      		adiw r26,10
 201 0090 8D91      		ld r24,X+
 202 0092 9C91      		ld r25,X
 203 0094 1B97      		sbiw r26,10+1
 204               	/* #APP */
 205               	 ;  110 "/Applications/Arduino.app/Contents/Java/hardware/tools/avr/avr/include/util/delay_basic.h"
 206 0096 0197      		1: sbiw r24,1
 207 0098 01F4      		brne 1b
 208               	 ;  0 "" 2
 209               	.LVL25:
 210               	/* #NOAPP */
 211               	.LBE48:
 212               	.LBE47:
 213               	.LBE46:
 197:../TinyAudioBoot/SendOnlySoftwareSerial.cpp ****   tunedDelay(_tx_delay);
 198:../TinyAudioBoot/SendOnlySoftwareSerial.cpp **** 
 199:../TinyAudioBoot/SendOnlySoftwareSerial.cpp ****   return 1;
 214               		.loc 1 199 0
 215 009a 21E0      		ldi r18,lo8(1)
 216 009c 30E0      		ldi r19,0
 217               	.LVL26:
 218               	.L3:
 219               	.LBE36:
 200:../TinyAudioBoot/SendOnlySoftwareSerial.cpp **** }
 220               		.loc 1 200 0
 221 009e C901      		movw r24,r18
 222               	/* epilogue start */
 223 00a0 DF91      		pop r29
 224 00a2 CF91      		pop r28
 225 00a4 1F91      		pop r17
 226 00a6 0895      		ret
 227               		.cfi_endproc
 228               	.LFE104:
 229               		.size	_ZN22SendOnlySoftwareSerial5writeEh, .-_ZN22SendOnlySoftwareSerial5writeEh
 230               		.section	.text._ZN22SendOnlySoftwareSerial5flushEv,"ax",@progbits
 231               	.global	_ZN22SendOnlySoftwareSerial5flushEv
 232               		.type	_ZN22SendOnlySoftwareSerial5flushEv, @function
 233               	_ZN22SendOnlySoftwareSerial5flushEv:
 234               	.LFB105:
 201:../TinyAudioBoot/SendOnlySoftwareSerial.cpp **** 
 202:../TinyAudioBoot/SendOnlySoftwareSerial.cpp **** void SendOnlySoftwareSerial::flush()
 203:../TinyAudioBoot/SendOnlySoftwareSerial.cpp **** {
 235               		.loc 1 203 0
 236               		.cfi_startproc
 237               	.LVL27:
 238               	/* prologue: function */
 239               	/* frame size = 0 */
 240               	/* stack size = 0 */
GAS LISTING /var/folders/x6/17svhgds0x7889jbwj0rb4y80000gp/T//ccsgTFFA.s 			page 12


 241               	.L__stack_usage = 0
 242 0000 0895      		ret
 243               		.cfi_endproc
 244               	.LFE105:
 245               		.size	_ZN22SendOnlySoftwareSerial5flushEv, .-_ZN22SendOnlySoftwareSerial5flushEv
 246               		.section	.text._ZN22SendOnlySoftwareSerial4readEv,"ax",@progbits
 247               	.global	_ZN22SendOnlySoftwareSerial4readEv
 248               		.type	_ZN22SendOnlySoftwareSerial4readEv, @function
 249               	_ZN22SendOnlySoftwareSerial4readEv:
 250               	.LFB106:
 204:../TinyAudioBoot/SendOnlySoftwareSerial.cpp ****   // There is no tx buffering, simply return
 205:../TinyAudioBoot/SendOnlySoftwareSerial.cpp **** }
 206:../TinyAudioBoot/SendOnlySoftwareSerial.cpp **** 
 207:../TinyAudioBoot/SendOnlySoftwareSerial.cpp **** // Read data from buffer
 208:../TinyAudioBoot/SendOnlySoftwareSerial.cpp **** int SendOnlySoftwareSerial::read()
 209:../TinyAudioBoot/SendOnlySoftwareSerial.cpp **** {
 251               		.loc 1 209 0
 252               		.cfi_startproc
 253               	.LVL28:
 254               	/* prologue: function */
 255               	/* frame size = 0 */
 256               	/* stack size = 0 */
 257               	.L__stack_usage = 0
 210:../TinyAudioBoot/SendOnlySoftwareSerial.cpp ****   return -1;
 211:../TinyAudioBoot/SendOnlySoftwareSerial.cpp **** }
 258               		.loc 1 211 0
 259 0000 8FEF      		ldi r24,lo8(-1)
 260 0002 9FEF      		ldi r25,lo8(-1)
 261               	.LVL29:
 262 0004 0895      		ret
 263               		.cfi_endproc
 264               	.LFE106:
 265               		.size	_ZN22SendOnlySoftwareSerial4readEv, .-_ZN22SendOnlySoftwareSerial4readEv
 266               		.section	.text._ZN22SendOnlySoftwareSerial9availableEv,"ax",@progbits
 267               	.global	_ZN22SendOnlySoftwareSerial9availableEv
 268               		.type	_ZN22SendOnlySoftwareSerial9availableEv, @function
 269               	_ZN22SendOnlySoftwareSerial9availableEv:
 270               	.LFB107:
 212:../TinyAudioBoot/SendOnlySoftwareSerial.cpp **** 
 213:../TinyAudioBoot/SendOnlySoftwareSerial.cpp **** int SendOnlySoftwareSerial::available()
 214:../TinyAudioBoot/SendOnlySoftwareSerial.cpp **** {
 271               		.loc 1 214 0
 272               		.cfi_startproc
 273               	.LVL30:
 274               	/* prologue: function */
 275               	/* frame size = 0 */
 276               	/* stack size = 0 */
 277               	.L__stack_usage = 0
 215:../TinyAudioBoot/SendOnlySoftwareSerial.cpp ****   return 0;
 216:../TinyAudioBoot/SendOnlySoftwareSerial.cpp **** }
 278               		.loc 1 216 0
 279 0000 80E0      		ldi r24,0
 280 0002 90E0      		ldi r25,0
 281               	.LVL31:
 282 0004 0895      		ret
 283               		.cfi_endproc
 284               	.LFE107:
GAS LISTING /var/folders/x6/17svhgds0x7889jbwj0rb4y80000gp/T//ccsgTFFA.s 			page 13


 285               		.size	_ZN22SendOnlySoftwareSerial9availableEv, .-_ZN22SendOnlySoftwareSerial9availableEv
 286               		.section	.text._ZN22SendOnlySoftwareSerial4peekEv,"ax",@progbits
 287               	.global	_ZN22SendOnlySoftwareSerial4peekEv
 288               		.type	_ZN22SendOnlySoftwareSerial4peekEv, @function
 289               	_ZN22SendOnlySoftwareSerial4peekEv:
 290               	.LFB108:
 217:../TinyAudioBoot/SendOnlySoftwareSerial.cpp **** 
 218:../TinyAudioBoot/SendOnlySoftwareSerial.cpp **** int SendOnlySoftwareSerial::peek()
 219:../TinyAudioBoot/SendOnlySoftwareSerial.cpp **** {
 291               		.loc 1 219 0
 292               		.cfi_startproc
 293               	.LVL32:
 294               	/* prologue: function */
 295               	/* frame size = 0 */
 296               	/* stack size = 0 */
 297               	.L__stack_usage = 0
 220:../TinyAudioBoot/SendOnlySoftwareSerial.cpp ****   return -1;
 221:../TinyAudioBoot/SendOnlySoftwareSerial.cpp **** }
 298               		.loc 1 221 0
 299 0000 8FEF      		ldi r24,lo8(-1)
 300 0002 9FEF      		ldi r25,lo8(-1)
 301               	.LVL33:
 302 0004 0895      		ret
 303               		.cfi_endproc
 304               	.LFE108:
 305               		.size	_ZN22SendOnlySoftwareSerial4peekEv, .-_ZN22SendOnlySoftwareSerial4peekEv
 306               		.section	.text._ZN22SendOnlySoftwareSerialD2Ev,"ax",@progbits
 307               	.global	_ZN22SendOnlySoftwareSerialD2Ev
 308               		.type	_ZN22SendOnlySoftwareSerialD2Ev, @function
 309               	_ZN22SendOnlySoftwareSerialD2Ev:
 310               	.LFB98:
  93:../TinyAudioBoot/SendOnlySoftwareSerial.cpp **** {
 311               		.loc 1 93 0
 312               		.cfi_startproc
 313               	.LVL34:
 314               	/* prologue: function */
 315               	/* frame size = 0 */
 316               	/* stack size = 0 */
 317               	.L__stack_usage = 0
 318 0000 0895      		ret
 319               		.cfi_endproc
 320               	.LFE98:
 321               		.size	_ZN22SendOnlySoftwareSerialD2Ev, .-_ZN22SendOnlySoftwareSerialD2Ev
 322               	.global	_ZN22SendOnlySoftwareSerialD1Ev
 323               		.set	_ZN22SendOnlySoftwareSerialD1Ev,_ZN22SendOnlySoftwareSerialD2Ev
 324               		.section	.text._ZN22SendOnlySoftwareSerial5setTXEh,"ax",@progbits
 325               	.global	_ZN22SendOnlySoftwareSerial5setTXEh
 326               		.type	_ZN22SendOnlySoftwareSerial5setTXEh, @function
 327               	_ZN22SendOnlySoftwareSerial5setTXEh:
 328               	.LFB100:
  99:../TinyAudioBoot/SendOnlySoftwareSerial.cpp ****   // First write, then set output. If we do this the other way around,
 329               		.loc 1 99 0
 330               		.cfi_startproc
 331               	.LVL35:
  99:../TinyAudioBoot/SendOnlySoftwareSerial.cpp ****   // First write, then set output. If we do this the other way around,
 332               		.loc 1 99 0
 333 0000 1F93      		push r17
GAS LISTING /var/folders/x6/17svhgds0x7889jbwj0rb4y80000gp/T//ccsgTFFA.s 			page 14


 334               	.LCFI3:
 335               		.cfi_def_cfa_offset 3
 336               		.cfi_offset 17, -2
 337 0002 CF93      		push r28
 338               	.LCFI4:
 339               		.cfi_def_cfa_offset 4
 340               		.cfi_offset 28, -3
 341 0004 DF93      		push r29
 342               	.LCFI5:
 343               		.cfi_def_cfa_offset 5
 344               		.cfi_offset 29, -4
 345               	/* prologue: function */
 346               	/* frame size = 0 */
 347               	/* stack size = 3 */
 348               	.L__stack_usage = 3
 349 0006 EC01      		movw r28,r24
 350 0008 162F      		mov r17,r22
 351               	.LBB49:
 104:../TinyAudioBoot/SendOnlySoftwareSerial.cpp ****   pinMode(tx, OUTPUT);
 352               		.loc 1 104 0
 353 000a 6C85      		ldd r22,Y+12
 354               	.LVL36:
 355 000c 6695      		lsr r22
 356 000e 6170      		andi r22,1
 357 0010 81E0      		ldi r24,lo8(1)
 358               	.LVL37:
 359 0012 6827      		eor r22,r24
 360 0014 812F      		mov r24,r17
 361 0016 00D0      		rcall digitalWrite
 362               	.LVL38:
 105:../TinyAudioBoot/SendOnlySoftwareSerial.cpp ****   _transmitBitMask = digitalPinToBitMask(tx);
 363               		.loc 1 105 0
 364 0018 61E0      		ldi r22,lo8(1)
 365 001a 812F      		mov r24,r17
 366 001c 00D0      		rcall pinMode
 367               	.LVL39:
 368               	.LBB50:
 106:../TinyAudioBoot/SendOnlySoftwareSerial.cpp ****   uint8_t port = digitalPinToPort(tx);
 369               		.loc 1 106 0
 370 001e 612F      		mov r22,r17
 371 0020 70E0      		ldi r23,0
 372               	.LVL40:
 373 0022 FB01      		movw r30,r22
 374 0024 E050      		subi r30,lo8(-(digital_pin_to_bit_mask_PGM))
 375 0026 F040      		sbci r31,hi8(-(digital_pin_to_bit_mask_PGM))
 376               	.LVL41:
 377               	/* #APP */
 378               	 ;  106 "../TinyAudioBoot/SendOnlySoftwareSerial.cpp" 1
 379 0028 E491      		lpm r30, Z
 380               		
 381               	 ;  0 "" 2
 382               	.LVL42:
 383               	/* #NOAPP */
 384 002a EC83      		std Y+4,r30
 385               	.LVL43:
 386               	.LBE50:
 387               	.LBB51:
GAS LISTING /var/folders/x6/17svhgds0x7889jbwj0rb4y80000gp/T//ccsgTFFA.s 			page 15


 107:../TinyAudioBoot/SendOnlySoftwareSerial.cpp ****   _transmitPortRegister = portOutputRegister(port);
 388               		.loc 1 107 0
 389 002c FB01      		movw r30,r22
 390               	.LVL44:
 391 002e E050      		subi r30,lo8(-(digital_pin_to_port_PGM))
 392 0030 F040      		sbci r31,hi8(-(digital_pin_to_port_PGM))
 393               	.LVL45:
 394               	/* #APP */
 395               	 ;  107 "../TinyAudioBoot/SendOnlySoftwareSerial.cpp" 1
 396 0032 E491      		lpm r30, Z
 397               		
 398               	 ;  0 "" 2
 399               	.LVL46:
 400               	/* #NOAPP */
 401               	.LBE51:
 402               	.LBB52:
 108:../TinyAudioBoot/SendOnlySoftwareSerial.cpp **** }
 403               		.loc 1 108 0
 404 0034 F0E0      		ldi r31,0
 405 0036 EE0F      		lsl r30
 406 0038 FF1F      		rol r31
 407               	.LVL47:
 408 003a E050      		subi r30,lo8(-(port_to_output_PGM))
 409 003c F040      		sbci r31,hi8(-(port_to_output_PGM))
 410               	.LVL48:
 411               	/* #APP */
 412               	 ;  108 "../TinyAudioBoot/SendOnlySoftwareSerial.cpp" 1
 413 003e 8591      		lpm r24, Z+
 414 0040 9491      		lpm r25, Z
 415               		
 416               	 ;  0 "" 2
 417               	.LVL49:
 418               	/* #NOAPP */
 419               	.LBE52:
 420 0042 9E83      		std Y+6,r25
 421 0044 8D83      		std Y+5,r24
 422               	/* epilogue start */
 423               	.LBE49:
 109:../TinyAudioBoot/SendOnlySoftwareSerial.cpp **** 
 424               		.loc 1 109 0
 425 0046 DF91      		pop r29
 426 0048 CF91      		pop r28
 427               	.LVL50:
 428 004a 1F91      		pop r17
 429               	.LVL51:
 430 004c 0895      		ret
 431               		.cfi_endproc
 432               	.LFE100:
 433               		.size	_ZN22SendOnlySoftwareSerial5setTXEh, .-_ZN22SendOnlySoftwareSerial5setTXEh
 434               		.section	.text._ZN22SendOnlySoftwareSerialC2Ehb,"ax",@progbits
 435               	.global	_ZN22SendOnlySoftwareSerialC2Ehb
 436               		.type	_ZN22SendOnlySoftwareSerialC2Ehb, @function
 437               	_ZN22SendOnlySoftwareSerialC2Ehb:
 438               	.LFB95:
  83:../TinyAudioBoot/SendOnlySoftwareSerial.cpp ****   _tx_delay(0),
 439               		.loc 1 83 0
 440               		.cfi_startproc
GAS LISTING /var/folders/x6/17svhgds0x7889jbwj0rb4y80000gp/T//ccsgTFFA.s 			page 16


 441               	.LVL52:
 442               	/* prologue: function */
 443               	/* frame size = 0 */
 444               	/* stack size = 0 */
 445               	.L__stack_usage = 0
 446 0000 FC01      		movw r30,r24
 447               	.LVL53:
 448               	.LBB53:
 449               	.LBB54:
 450               	.LBB55:
 451               	.LBB56:
  72:/Users/xcorex/Library/Arduino15/packages/ATTinyCore/hardware/avr/1.0.6/cores/tiny/Print.h ****   public:
  73:/Users/xcorex/Library/Arduino15/packages/ATTinyCore/hardware/avr/1.0.6/cores/tiny/Print.h ****     Print() : write_error(0) {}
 452               		.loc 2 73 0
 453 0002 1382      		std Z+3,__zero_reg__
 454 0004 1282      		std Z+2,__zero_reg__
 455               	.LBE56:
 456               	.LBE55:
 457               	.LBE54:
  85:../TinyAudioBoot/SendOnlySoftwareSerial.cpp **** {
 458               		.loc 1 85 0
 459 0006 80E0      		ldi r24,lo8(_ZTV22SendOnlySoftwareSerial+4)
 460 0008 90E0      		ldi r25,hi8(_ZTV22SendOnlySoftwareSerial+4)
 461               	.LVL54:
 462 000a 9183      		std Z+1,r25
 463 000c 8083      		st Z,r24
 464 000e 1386      		std Z+11,__zero_reg__
 465 0010 1286      		std Z+10,__zero_reg__
 466 0012 8485      		ldd r24,Z+12
 467 0014 40FB      		bst r20,0
 468 0016 81F9      		bld r24,1
 469 0018 8487      		std Z+12,r24
  87:../TinyAudioBoot/SendOnlySoftwareSerial.cpp **** }
 470               		.loc 1 87 0
 471 001a CF01      		movw r24,r30
 472 001c 00C0      		rjmp _ZN22SendOnlySoftwareSerial5setTXEh
 473               	.LVL55:
 474               	.LBE53:
 475               		.cfi_endproc
 476               	.LFE95:
 477               		.size	_ZN22SendOnlySoftwareSerialC2Ehb, .-_ZN22SendOnlySoftwareSerialC2Ehb
 478               	.global	_ZN22SendOnlySoftwareSerialC1Ehb
 479               		.set	_ZN22SendOnlySoftwareSerialC1Ehb,_ZN22SendOnlySoftwareSerialC2Ehb
 480               		.section	.text._ZN22SendOnlySoftwareSerial12subtract_capEjj,"ax",@progbits
 481               	.global	_ZN22SendOnlySoftwareSerial12subtract_capEjj
 482               		.type	_ZN22SendOnlySoftwareSerial12subtract_capEjj, @function
 483               	_ZN22SendOnlySoftwareSerial12subtract_capEjj:
 484               	.LFB101:
 111:../TinyAudioBoot/SendOnlySoftwareSerial.cpp ****   if (num > sub)
 485               		.loc 1 111 0
 486               		.cfi_startproc
 487               	.LVL56:
 488               	/* prologue: function */
 489               	/* frame size = 0 */
 490               	/* stack size = 0 */
 491               	.L__stack_usage = 0
 112:../TinyAudioBoot/SendOnlySoftwareSerial.cpp ****     return num - sub;
GAS LISTING /var/folders/x6/17svhgds0x7889jbwj0rb4y80000gp/T//ccsgTFFA.s 			page 17


 492               		.loc 1 112 0
 493 0000 6817      		cp r22,r24
 494 0002 7907      		cpc r23,r25
 495 0004 00F4      		brsh .L28
 113:../TinyAudioBoot/SendOnlySoftwareSerial.cpp ****   else
 496               		.loc 1 113 0
 497 0006 861B      		sub r24,r22
 498 0008 970B      		sbc r25,r23
 499               	.LVL57:
 500 000a 0895      		ret
 501               	.LVL58:
 502               	.L28:
 115:../TinyAudioBoot/SendOnlySoftwareSerial.cpp **** }
 503               		.loc 1 115 0
 504 000c 81E0      		ldi r24,lo8(1)
 505 000e 90E0      		ldi r25,0
 506               	.LVL59:
 116:../TinyAudioBoot/SendOnlySoftwareSerial.cpp **** 
 507               		.loc 1 116 0
 508 0010 0895      		ret
 509               		.cfi_endproc
 510               	.LFE101:
 511               		.size	_ZN22SendOnlySoftwareSerial12subtract_capEjj, .-_ZN22SendOnlySoftwareSerial12subtract_capEjj
 512               		.section	.text._ZN22SendOnlySoftwareSerial5beginEl,"ax",@progbits
 513               	.global	_ZN22SendOnlySoftwareSerial5beginEl
 514               		.type	_ZN22SendOnlySoftwareSerial5beginEl, @function
 515               	_ZN22SendOnlySoftwareSerial5beginEl:
 516               	.LFB102:
 123:../TinyAudioBoot/SendOnlySoftwareSerial.cpp ****   _tx_delay = 0;
 517               		.loc 1 123 0
 518               		.cfi_startproc
 519               	.LVL60:
 520 0000 CF93      		push r28
 521               	.LCFI6:
 522               		.cfi_def_cfa_offset 3
 523               		.cfi_offset 28, -2
 524 0002 DF93      		push r29
 525               	.LCFI7:
 526               		.cfi_def_cfa_offset 4
 527               		.cfi_offset 29, -3
 528               	/* prologue: function */
 529               	/* frame size = 0 */
 530               	/* stack size = 2 */
 531               	.L__stack_usage = 2
 532 0004 EC01      		movw r28,r24
 533 0006 9A01      		movw r18,r20
 534 0008 AB01      		movw r20,r22
 535               	.LBB57:
 127:../TinyAudioBoot/SendOnlySoftwareSerial.cpp **** 
 536               		.loc 1 127 0
 537 000a 68E4      		ldi r22,lo8(72)
 538 000c 71EF      		ldi r23,lo8(-15)
 539 000e 8EE3      		ldi r24,lo8(62)
 540 0010 90E0      		ldi r25,0
 541 0012 00D0      		rcall __divmodsi4
 542               	.LVL61:
 543               	.LBB58:
GAS LISTING /var/folders/x6/17svhgds0x7889jbwj0rb4y80000gp/T//ccsgTFFA.s 			page 18


 544               	.LBB59:
 112:../TinyAudioBoot/SendOnlySoftwareSerial.cpp ****     return num - sub;
 545               		.loc 1 112 0
 546 0014 2430      		cpi r18,4
 547 0016 3105      		cpc r19,__zero_reg__
 548 0018 00F0      		brlo .L31
 113:../TinyAudioBoot/SendOnlySoftwareSerial.cpp ****   else
 549               		.loc 1 113 0
 550 001a 2350      		subi r18,3
 551 001c 3109      		sbc r19,__zero_reg__
 552               	.LVL62:
 553 001e 00C0      		rjmp .L30
 554               	.LVL63:
 555               	.L31:
 115:../TinyAudioBoot/SendOnlySoftwareSerial.cpp **** }
 556               		.loc 1 115 0
 557 0020 21E0      		ldi r18,lo8(1)
 558 0022 30E0      		ldi r19,0
 559               	.LVL64:
 560               	.L30:
 561               	.LBE59:
 562               	.LBE58:
 134:../TinyAudioBoot/SendOnlySoftwareSerial.cpp **** 
 563               		.loc 1 134 0
 564 0024 3B87      		std Y+11,r19
 565 0026 2A87      		std Y+10,r18
 566               	/* epilogue start */
 567               	.LBE57:
 141:../TinyAudioBoot/SendOnlySoftwareSerial.cpp **** 
 568               		.loc 1 141 0
 569 0028 DF91      		pop r29
 570 002a CF91      		pop r28
 571 002c 0895      		ret
 572               		.cfi_endproc
 573               	.LFE102:
 574               		.size	_ZN22SendOnlySoftwareSerial5beginEl, .-_ZN22SendOnlySoftwareSerial5beginEl
 575               		.section	.text._ZN22SendOnlySoftwareSerial3endEv,"ax",@progbits
 576               	.global	_ZN22SendOnlySoftwareSerial3endEv
 577               		.type	_ZN22SendOnlySoftwareSerial3endEv, @function
 578               	_ZN22SendOnlySoftwareSerial3endEv:
 579               	.LFB103:
 144:../TinyAudioBoot/SendOnlySoftwareSerial.cpp **** }
 580               		.loc 1 144 0
 581               		.cfi_startproc
 582               	.LVL65:
 583               	/* prologue: function */
 584               	/* frame size = 0 */
 585               	/* stack size = 0 */
 586               	.L__stack_usage = 0
 587 0000 0895      		ret
 588               		.cfi_endproc
 589               	.LFE103:
 590               		.size	_ZN22SendOnlySoftwareSerial3endEv, .-_ZN22SendOnlySoftwareSerial3endEv
 591               		.weak	_ZTV22SendOnlySoftwareSerial
 592               		.section	.rodata._ZTV22SendOnlySoftwareSerial,"aG",@progbits,_ZTV22SendOnlySoftwareSerial,comdat
 593               		.type	_ZTV22SendOnlySoftwareSerial, @object
 594               		.size	_ZTV22SendOnlySoftwareSerial, 16
GAS LISTING /var/folders/x6/17svhgds0x7889jbwj0rb4y80000gp/T//ccsgTFFA.s 			page 19


 595               	_ZTV22SendOnlySoftwareSerial:
 596 0000 0000      		.word	0
 597 0002 0000      		.word	0
 598 0004 0000      		.word	gs(_ZN22SendOnlySoftwareSerial5writeEh)
 599 0006 0000      		.word	gs(_ZN5Print5writeEPKhj)
 600 0008 0000      		.word	gs(_ZN22SendOnlySoftwareSerial9availableEv)
 601 000a 0000      		.word	gs(_ZN22SendOnlySoftwareSerial4readEv)
 602 000c 0000      		.word	gs(_ZN22SendOnlySoftwareSerial4peekEv)
 603 000e 0000      		.word	gs(_ZN22SendOnlySoftwareSerial5flushEv)
 604               		.text
 605               	.Letext0:
 606               		.file 4 "/Applications/Arduino.app/Contents/Java/hardware/tools/avr/avr/include/stdint.h"
 607               		.file 5 "/Applications/Arduino.app/Contents/Java/hardware/tools/avr/lib/gcc/avr/4.9.2/include/stdd
 608               		.file 6 "../TinyAudioBoot/SendOnlySoftwareSerial.h"
 609               		.file 7 "/Users/xcorex/Library/Arduino15/packages/ATTinyCore/hardware/avr/1.0.6/cores/tiny/Stream.
 610               		.file 8 "/Users/xcorex/Library/Arduino15/packages/ATTinyCore/hardware/avr/1.0.6/cores/tiny/Arduino
 611               		.file 9 "/Users/xcorex/Library/Arduino15/packages/ATTinyCore/hardware/avr/1.0.6/variants/tinyX5/pi